target datalayout = "e-m:e-p270:32:32-p271:32:32-p272:64:64-i64:64-i128:128-f80:128-n8:16:32:64-S128"
target triple = "x86_64-pc-linux-gnu"

%struct._asn1_ctx_t = type { i32, i32, i8, ptr, ptr, ptr, ptr, ptr, %struct.anon, %struct.anon.2, %struct.anon.3, ptr }
%struct.anon = type { i32, i8, i8, i8, ptr, ptr, i32, i32, ptr, ptr, ptr, %union.anon }
%union.anon = type { %struct.anon.0 }
%struct.anon.0 = type { ptr }
%struct.anon.2 = type { ptr, ptr, ptr }
%struct.anon.3 = type { i32, i8, ptr, i32, i32, ptr, ptr, ptr, %union.anon.4 }
%union.anon.4 = type { %struct.anon.5 }
%struct.anon.5 = type { ptr }
%struct._packet_info = type { ptr, ptr, i32, i32, %struct.nstime_t, %struct.nstime_t, %struct.nstime_t, i8, ptr, ptr, ptr, ptr, %struct._address, %struct._address, %struct._address, %struct._address, %struct._address, %struct._address, i32, ptr, i8, [3 x i8], %struct.anon.7, i32, i32, i32, i32, ptr, i8, ptr, ptr, i16, i16, i32, i32, i16, i32, i32, ptr, ptr, ptr, i8, i8, i16, i16, i16, i32, i16, i16, ptr, ptr, ptr, ptr, ptr, i32, i32 }
%struct.nstime_t = type { i64, i32 }
%struct._address = type { i32, i32, ptr, ptr }
%struct.anon.7 = type { i8, [3 x i8] }
%struct.mms_private_data_t = type { [10 x i8], [1024 x i8] }

@proto_mms = internal global i32 0, align 4
@.str.1505 = private unnamed_addr constant [2 x i8] c" \00", align 1

; Function Attrs: null_pointer_is_valid sspstrong uwtable
define internal ptr @mms_get_private_data(ptr noundef %0) #0 {
  %2 = alloca ptr, align 8
  %3 = alloca ptr, align 8
  %4 = alloca ptr, align 8
  %5 = alloca ptr, align 8
  %6 = alloca i32, align 4
  store ptr %0, ptr %3, align 8
  call void @llvm.lifetime.start.p0(i64 8, ptr %4) #8
  %7 = load ptr, ptr %3, align 8
  %8 = getelementptr inbounds nuw %struct._asn1_ctx_t, ptr %7, i32 0, i32 3
  %9 = load ptr, ptr %8, align 8
  store ptr %9, ptr %4, align 8
  call void @llvm.lifetime.start.p0(i64 8, ptr %5) #8
  %10 = load ptr, ptr %4, align 8
  %11 = getelementptr inbounds nuw %struct._packet_info, ptr %10, i32 0, i32 51
  %12 = load ptr, ptr %11, align 8
  %13 = load ptr, ptr %4, align 8
  %14 = load i32, ptr @proto_mms, align 4
  %15 = load ptr, ptr %4, align 8
  %16 = getelementptr inbounds nuw %struct._packet_info, ptr %15, i32 0, i32 41
  %17 = load i8, ptr %16, align 8
  %18 = zext i8 %17 to i32
  %19 = call ptr @p_get_proto_data(ptr noundef %12, ptr noundef %13, i32 noundef %14, i32 noundef %18)
  store ptr %19, ptr %5, align 8
  %20 = load ptr, ptr %5, align 8
  %21 = icmp ne ptr %20, null
  br i1 %21, label %22, label %24

22:                                               ; preds = %1
  %23 = load ptr, ptr %5, align 8
  store ptr %23, ptr %2, align 8
  store i32 1, ptr %6, align 4
  br label %40

24:                                               ; preds = %1
  %25 = load ptr, ptr %4, align 8
  %26 = getelementptr inbounds nuw %struct._packet_info, ptr %25, i32 0, i32 51
  %27 = load ptr, ptr %26, align 8
  %28 = call noalias ptr @wmem_alloc0(ptr noundef %27, i64 noundef 1034) #9
  store ptr %28, ptr %5, align 8
  %29 = load ptr, ptr %4, align 8
  %30 = getelementptr inbounds nuw %struct._packet_info, ptr %29, i32 0, i32 51
  %31 = load ptr, ptr %30, align 8
  %32 = load ptr, ptr %4, align 8
  %33 = load i32, ptr @proto_mms, align 4
  %34 = load ptr, ptr %4, align 8
  %35 = getelementptr inbounds nuw %struct._packet_info, ptr %34, i32 0, i32 41
  %36 = load i8, ptr %35, align 8
  %37 = zext i8 %36 to i32
  %38 = load ptr, ptr %5, align 8
  call void @p_add_proto_data(ptr noundef %31, ptr noundef %32, i32 noundef %33, i32 noundef %37, ptr noundef %38)
  %39 = load ptr, ptr %5, align 8
  store ptr %39, ptr %2, align 8
  store i32 1, ptr %6, align 4
  br label %40

40:                                               ; preds = %24, %22
  call void @llvm.lifetime.end.p0(i64 8, ptr %5) #8
  call void @llvm.lifetime.end.p0(i64 8, ptr %4) #8
  %41 = load ptr, ptr %2, align 8
  ret ptr %41
}

; Function Attrs: null_pointer_is_valid sspstrong uwtable
define internal void @private_data_add_moreCinfo_id(ptr noundef %0, ptr noundef %1) #0 {
  %3 = alloca ptr, align 8
  %4 = alloca ptr, align 8
  %5 = alloca ptr, align 8
  store ptr %0, ptr %3, align 8
  store ptr %1, ptr %4, align 8
  call void @llvm.lifetime.start.p0(i64 8, ptr %5) #8
  %6 = load ptr, ptr %3, align 8
  %7 = call ptr @mms_get_private_data(ptr noundef %6)
  store ptr %7, ptr %5, align 8
  %8 = load ptr, ptr %5, align 8
  %9 = getelementptr inbounds nuw %struct.mms_private_data_t, ptr %8, i32 0, i32 1
  %10 = getelementptr inbounds [1024 x i8], ptr %9, i64 0, i64 0
  %11 = call i64 @g_strlcat(ptr noundef %10, ptr noundef @.str.1505, i64 noundef 1024)
  %12 = load ptr, ptr %5, align 8
  %13 = getelementptr inbounds nuw %struct.mms_private_data_t, ptr %12, i32 0, i32 1
  %14 = getelementptr inbounds [1024 x i8], ptr %13, i64 0, i64 0
  %15 = load ptr, ptr %3, align 8
  %16 = getelementptr inbounds nuw %struct._asn1_ctx_t, ptr %15, i32 0, i32 3
  %17 = load ptr, ptr %16, align 8
  %18 = getelementptr inbounds nuw %struct._packet_info, ptr %17, i32 0, i32 51
  %19 = load ptr, ptr %18, align 8
  %20 = load ptr, ptr %4, align 8
  %21 = load ptr, ptr %4, align 8
  %22 = call i32 @tvb_reported_length(ptr noundef %21)
  %23 = call ptr @tvb_get_string_enc(ptr noundef %19, ptr noundef %20, i32 noundef 0, i32 noundef %22, i32 noundef 0)
  %24 = call i64 @g_strlcat(ptr noundef %14, ptr noundef %23, i64 noundef 1024)
  call void @llvm.lifetime.end.p0(i64 8, ptr %5) #8
  ret void
}