; Function Attrs: null_pointer_is_valid sspstrong uwtable
define internal fastcc void @private_data_add_moreCinfo_id(ptr noundef readonly captures(none) %0, ptr noundef %1) unnamed_addr #0 {
  %3 = getelementptr i8, ptr %0, i64 16
  %.val = load ptr, ptr %3, align 8
  %4 = getelementptr inbounds nuw i8, ptr %.val, i64 408
  %5 = load ptr, ptr %4, align 8
  %6 = load i32, ptr @proto_mms, align 4
  %7 = getelementptr inbounds nuw i8, ptr %.val, i64 376
  %8 = load i8, ptr %7, align 8
  %9 = zext i8 %8 to i32
  %10 = tail call ptr @p_get_proto_data(ptr noundef %5, ptr noundef %.val, i32 noundef %6, i32 noundef %9)
  %.not.i = icmp eq ptr %10, null
  br i1 %.not.i, label %11, label %mms_get_private_data.exit

11:                                               ; preds = %2
  %12 = load ptr, ptr %4, align 8
  %13 = tail call noalias dereferenceable_or_null(1034) ptr @wmem_alloc0(ptr noundef %12, i64 noundef 1034) #9
  %14 = load ptr, ptr %4, align 8
  %15 = load i32, ptr @proto_mms, align 4
  %16 = load i8, ptr %7, align 8
  %17 = zext i8 %16 to i32
  tail call void @p_add_proto_data(ptr noundef %14, ptr noundef %.val, i32 noundef %15, i32 noundef %17, ptr noundef %13)
  br label %mms_get_private_data.exit

mms_get_private_data.exit:                        ; preds = %2, %11
  %.0.i = phi ptr [ %13, %11 ], [ %10, %2 ]
  %18 = getelementptr inbounds nuw i8, ptr %.0.i, i64 10
  %19 = tail call i64 @g_strlcat(ptr noundef nonnull %18, ptr noundef nonnull @.str.1505, i64 noundef 1024)
  %20 = load ptr, ptr %3, align 8
  %21 = getelementptr inbounds nuw i8, ptr %20, i64 408
  %22 = load ptr, ptr %21, align 8
  %23 = tail call i32 @tvb_reported_length(ptr noundef %1)
  %24 = tail call ptr @tvb_get_string_enc(ptr noundef %22, ptr noundef %1, i32 noundef 0, i32 noundef %23, i32 noundef 0)
  %25 = tail call i64 @g_strlcat(ptr noundef nonnull %18, ptr noundef %24, i64 noundef 1024)
  ret void
}